; Function Attrs: mustprogress nounwind uwtable
define dso_local { ptr, i64 } @_ZN5clang13DiagnosticIDs16getNearestOptionENS_4diag6FlavorEN4llvm9StringRefE(i32 noundef %0, ptr %1, i64 %2) local_unnamed_addr #4 align 2 {
  %4 = alloca %"class.llvm::StringRef", align 8
  %5 = alloca %"class.llvm::SmallVector.144", align 8
  %6 = trunc i64 %2 to i32
  %7 = add i32 %6, 1
  %8 = getelementptr inbounds nuw i8, ptr %4, i64 8
  %9 = getelementptr inbounds i8, ptr %5, i64 16
  br label %10

10:                                               ; preds = %3, %_ZN4llvm11SmallVectorIjLj8EED2Ev.exit
  %.034 = phi i32 [ %7, %3 ], [ %.1, %_ZN4llvm11SmallVectorIjLj8EED2Ev.exit ]
  %.019.idx33 = phi i64 [ 0, %3 ], [ %.019.add, %_ZN4llvm11SmallVectorIjLj8EED2Ev.exit ]
  %.sroa.030.032 = phi ptr [ null, %3 ], [ %.sroa.030.1, %_ZN4llvm11SmallVectorIjLj8EED2Ev.exit ]
  %.sroa.4.031 = phi i64 [ 0, %3 ], [ %.sroa.4.1, %_ZN4llvm11SmallVectorIjLj8EED2Ev.exit ]
  %.019.ptr35 = getelementptr inbounds i8, ptr @_ZL11OptionTable, i64 %.019.idx33
  %11 = getelementptr inbounds nuw i8, ptr %.019.ptr35, i64 2
  %12 = load i16, ptr %11, align 2
  %.not21 = icmp eq i16 %12, 0
  br i1 %.not21, label %13, label %16

13:                                               ; preds = %10
  %14 = getelementptr inbounds nuw i8, ptr %.019.ptr35, i64 4
  %15 = load i16, ptr %14, align 4
  %.not22 = icmp eq i16 %15, 0
  br i1 %.not22, label %_ZN4llvm11SmallVectorIjLj8EED2Ev.exit, label %16

16:                                               ; preds = %13, %10
  %.019.ptr.val23 = load i16, ptr %.019.ptr35, align 8
  %17 = zext i16 %.019.ptr.val23 to i64
  %18 = getelementptr inbounds i8, ptr @_ZL14DiagGroupNames, i64 %17
  %19 = getelementptr inbounds i8, ptr %18, i64 1
  %20 = load i8, ptr %18, align 1
  %21 = sext i8 %20 to i64
  store ptr %19, ptr %4, align 8
  store i64 %21, ptr %8, align 8
  %22 = call noundef i32 @_ZNK4llvm9StringRef13edit_distanceES0_bj(ptr noundef nonnull align 8 dereferenceable(16) %4, ptr %1, i64 %2, i1 noundef zeroext true, i32 noundef %.034) #22
  %23 = icmp ugt i32 %22, %.034
  br i1 %23, label %_ZN4llvm11SmallVectorIjLj8EED2Ev.exit, label %24

24:                                               ; preds = %16
  call void @_ZN4llvm15SmallVectorBaseIjEC2EPvm(ptr noundef nonnull align 8 dereferenceable(16) %5, ptr noundef nonnull %9, i64 noundef 8) #22
  %25 = call fastcc noundef zeroext i1 @_ZL21getDiagnosticsInGroupN5clang4diag6FlavorEPKN12_GLOBAL__N_113WarningOptionERN4llvm15SmallVectorImplIjEE(i32 noundef %0, ptr noundef nonnull %.019.ptr35, ptr noundef nonnull align 8 dereferenceable(16) %5)
  br i1 %25, label %31, label %26

26:                                               ; preds = %24
  %27 = call noundef zeroext i1 @_ZNK4llvm15SmallVectorBaseIjE5emptyEv(ptr noundef nonnull align 8 dereferenceable(16) %5) #22
  br i1 %27, label %31, label %28

28:                                               ; preds = %26
  %29 = icmp eq i32 %22, %.034
  br i1 %29, label %31, label %30

30:                                               ; preds = %28
  br label %31

31:                                               ; preds = %28, %30, %24, %26
  %.sroa.4.2 = phi i64 [ %.sroa.4.031, %24 ], [ %.sroa.4.031, %26 ], [ %21, %30 ], [ 0, %28 ]
  %.sroa.030.2 = phi ptr [ %.sroa.030.032, %24 ], [ %.sroa.030.032, %26 ], [ %19, %30 ], [ @.str.2, %28 ]
  %.2 = phi i32 [ %.034, %24 ], [ %.034, %26 ], [ %22, %30 ], [ %.034, %28 ]
  %32 = call noundef i64 @_ZNK4llvm15SmallVectorBaseIjE4sizeEv(ptr noundef nonnull align 8 dereferenceable(16) %5) #22
  %33 = load ptr, ptr %5, align 8
  %34 = icmp eq ptr %33, %9
  br i1 %34, label %_ZN4llvm11SmallVectorIjLj8EED2Ev.exit, label %35

35:                                               ; preds = %31
  call void @free(ptr noundef %33) #22
  br label %_ZN4llvm11SmallVectorIjLj8EED2Ev.exit

_ZN4llvm11SmallVectorIjLj8EED2Ev.exit:            ; preds = %35, %31, %16, %13
  %.sroa.4.1 = phi i64 [ %.sroa.4.031, %13 ], [ %.sroa.4.031, %16 ], [ %.sroa.4.2, %31 ], [ %.sroa.4.2, %35 ]
  %.sroa.030.1 = phi ptr [ %.sroa.030.032, %13 ], [ %.sroa.030.032, %16 ], [ %.sroa.030.2, %31 ], [ %.sroa.030.2, %35 ]
  %.1 = phi i32 [ %.034, %13 ], [ %.034, %16 ], [ %.2, %31 ], [ %.2, %35 ]
  %.019.add = add nuw nsw i64 %.019.idx33, 24
  %.not = icmp eq i64 %.019.add, 25320
  br i1 %.not, label %36, label %10

36:                                               ; preds = %_ZN4llvm11SmallVectorIjLj8EED2Ev.exit
  %.fca.0.insert = insertvalue { ptr, i64 } poison, ptr %.sroa.030.1, 0
  %.fca.1.insert = insertvalue { ptr, i64 } %.fca.0.insert, i64 %.sroa.4.1, 1
  ret { ptr, i64 } %.fca.1.insert
}